; Function Attrs: mustprogress nounwind uwtable
define hidden void @_ZN10ciTypeFlow7do_flowEv(ptr noundef nonnull align 8 dereferenceable(88) %0) local_unnamed_addr #0 align 2 {
  tail call void @_ZN10ciTypeFlow10flow_typesEv(ptr noundef nonnull align 8 dereferenceable(88) %0)
  %2 = load ptr, ptr %0, align 8
  %3 = getelementptr inbounds i8, ptr %2, i64 88
  %4 = load ptr, ptr %3, align 8
  %5 = icmp ne ptr %4, null
  %6 = getelementptr inbounds i8, ptr %0, i64 24
  %7 = load ptr, ptr %6, align 8
  %8 = icmp ne ptr %7, null
  %9 = select i1 %5, i1 true, i1 %8
  br i1 %9, label %11, label %10

10:                                               ; preds = %1
  tail call void @_ZN10ciTypeFlow10map_blocksEv(ptr noundef nonnull align 8 dereferenceable(88) %0)
  br label %11

11:                                               ; preds = %1, %10
  ret void
}